BL51 BANKED LINKER/LOCATER V5.12                                                        10/31/2010  19:51:55  PAGE 1


BL51 BANKED LINKER/LOCATER V5.12, INVOKED BY:
D:\KEIL\C51\BIN\BL51.EXE STARTUP.obj, 18b201602.obj TO 18B201602 RAMSIZE (256)


MEMORY MODEL: SMALL


INPUT MODULES INCLUDED:
  STARTUP.obj (?C_STARTUP)
  18b201602.obj (18B201602)
  D:\KEIL\C51\LIB\C51S.LIB (?C_INIT)


LINK MAP OF MODULE:  18B201602 (?C_STARTUP)


            TYPE    BASE      LENGTH    RELOCATION   SEGMENT NAME
            -----------------------------------------------------

            * * * * * * *   D A T A   M E M O R Y   * * * * * * *
            REG     0000H     0008H     ABSOLUTE     "REG BANK 0"
            DATA    0008H     0007H     UNIT         ?DT?18B201602
                    000FH     0011H                  *** GAP ***
            BIT     0020H.0   0000H.1   UNIT         ?BI?18B201602
            BIT     0020H.1   0000H.1   UNIT         _BIT_GROUP_
                    0020H.2   0000H.6                *** GAP ***
            IDATA   0021H     0001H     UNIT         ?STACK

            * * * * * * *   C O D E   M E M O R Y   * * * * * * *
            CODE    0000H     0003H     ABSOLUTE     
            CODE    0003H     008CH     UNIT         ?C_C51STARTUP
            CODE    008FH     0080H     UNIT         ?PR?DISP_TEMPERATURE?18B201602
            CODE    010FH     005CH     UNIT         ?CO?18B201602
            CODE    016BH     003DH     UNIT         ?PR?OK_MENU?18B201602
            CODE    01A8H     0035H     UNIT         ?PR?LCD_INIT?18B201602
            CODE    01DDH     002EH     UNIT         ?PR?ERROR_MENU?18B201602
            CODE    020BH     0025H     UNIT         ?PR?READ_TEMPERATURE?18B201602
            CODE    0230H     0023H     UNIT         ?PR?_LCD_WCMD?18B201602
            CODE    0253H     0023H     UNIT         ?PR?INIT_DS18B20?18B201602
            CODE    0276H     0020H     UNIT         ?PR?READONECHAR?18B201602
            CODE    0296H     001EH     UNIT         ?PR?_DELAY1?18B201602
            CODE    02B4H     001AH     UNIT         ?PR?_LCD_WDAT?18B201602
            CODE    02CEH     001AH     UNIT         ?PR?_WRITEONECHAR?18B201602
            CODE    02E8H     0019H     UNIT         ?PR?MAIN?18B201602
            CODE    0301H     0018H     UNIT         ?PR?BEEP?18B201602
            CODE    0319H     0015H     UNIT         ?PR?WRITETAB?18B201602
            CODE    032EH     0014H     UNIT         ?PR?LCD_BUSY?18B201602
            CODE    0342H     0010H     UNIT         ?PR?_DELAY?18B201602
            CODE    0352H     000CH     UNIT         ?C_INITSEG
            CODE    035EH     0007H     UNIT         ?PR?_LCD_POS?18B201602



OVERLAY MAP OF MODULE:   18B201602 (?C_STARTUP)


SEGMENT                                   BIT_GROUP 
  +--> CALLED SEGMENT                  START    LENGTH
BL51 BANKED LINKER/LOCATER V5.12                                                      10/31/2010  19:51:55  PAGE 2


------------------------------------------------------
?C_C51STARTUP                          -----    -----
  +--> ?PR?MAIN?18B201602
  +--> ?C_INITSEG

?PR?MAIN?18B201602                     -----    -----
  +--> ?PR?OK_MENU?18B201602
  +--> ?PR?READ_TEMPERATURE?18B201602
  +--> ?PR?DISP_TEMPERATURE?18B201602
  +--> ?PR?ERROR_MENU?18B201602
  +--> ?PR?INIT_DS18B20?18B201602
  +--> ?PR?BEEP?18B201602

?PR?OK_MENU?18B201602                  -----    -----
  +--> ?PR?LCD_INIT?18B201602
  +--> ?PR?_LCD_POS?18B201602
  +--> ?CO?18B201602
  +--> ?PR?_LCD_WDAT?18B201602
  +--> ?PR?WRITETAB?18B201602
  +--> ?PR?_DELAY1?18B201602

?PR?LCD_INIT?18B201602                 -----    -----
  +--> ?PR?_LCD_WCMD?18B201602
  +--> ?PR?_DELAY1?18B201602

?PR?_LCD_WCMD?18B201602                -----    -----
  +--> ?PR?_DELAY1?18B201602
  +--> ?PR?LCD_BUSY?18B201602

?PR?LCD_BUSY?18B201602                 0020H.1  0000H.1

?PR?_LCD_POS?18B201602                 -----    -----
  +--> ?PR?_LCD_WCMD?18B201602

?PR?_LCD_WDAT?18B201602                -----    -----
  +--> ?PR?LCD_BUSY?18B201602

?PR?WRITETAB?18B201602                 -----    -----
  +--> ?PR?_LCD_WCMD?18B201602
  +--> ?CO?18B201602
  +--> ?PR?_LCD_WDAT?18B201602

?PR?READ_TEMPERATURE?18B201602         -----    -----
  +--> ?PR?INIT_DS18B20?18B201602
  +--> ?PR?_WRITEONECHAR?18B201602
  +--> ?PR?READONECHAR?18B201602

?PR?INIT_DS18B20?18B201602             -----    -----
  +--> ?PR?_DELAY?18B201602

?PR?_WRITEONECHAR?18B201602            -----    -----
  +--> ?PR?_DELAY?18B201602

?PR?READONECHAR?18B201602              -----    -----
  +--> ?PR?_DELAY?18B201602

?PR?DISP_TEMPERATURE?18B201602         -----    -----
BL51 BANKED LINKER/LOCATER V5.12                                                      10/31/2010  19:51:55  PAGE 3


  +--> ?CO?18B201602
  +--> ?PR?_LCD_POS?18B201602
  +--> ?PR?_LCD_WDAT?18B201602

?PR?ERROR_MENU?18B201602               -----    -----
  +--> ?PR?LCD_INIT?18B201602
  +--> ?PR?_LCD_POS?18B201602
  +--> ?CO?18B201602
  +--> ?PR?_LCD_WDAT?18B201602

?PR?BEEP?18B201602                     -----    -----
  +--> ?PR?_DELAY?18B201602



SYMBOL TABLE OF MODULE:  18B201602 (?C_STARTUP)

  VALUE           TYPE          NAME
  ----------------------------------

  -------         MODULE        ?C_STARTUP
  C:0003H         SEGMENT       ?C_C51STARTUP
  I:0021H         SEGMENT       ?STACK
  C:0000H         PUBLIC        ?C_STARTUP
  D:00E0H         SYMBOL        ACC
  D:00F0H         SYMBOL        B
  D:0083H         SYMBOL        DPH
  D:0082H         SYMBOL        DPL
  N:0000H         SYMBOL        IBPSTACK
  N:0100H         SYMBOL        IBPSTACKTOP
  N:0080H         SYMBOL        IDATALEN
  C:0006H         SYMBOL        IDATALOOP
  N:0000H         SYMBOL        PBPSTACK
  N:0000H         SYMBOL        PBPSTACKTOP
  N:0000H         SYMBOL        PDATALEN
  N:0000H         SYMBOL        PDATASTART
  N:0000H         SYMBOL        PPAGE
  N:0000H         SYMBOL        PPAGEENABLE
  D:00A0H         SYMBOL        PPAGE_SFR
  D:0081H         SYMBOL        SP
  C:0003H         SYMBOL        STARTUP1
  N:0000H         SYMBOL        XBPSTACK
  N:0000H         SYMBOL        XBPSTACKTOP
  N:0000H         SYMBOL        XDATALEN
  N:0000H         SYMBOL        XDATASTART
  C:0000H         LINE#         92
  C:0003H         LINE#         99
  C:0005H         LINE#         100
  C:0006H         LINE#         101
  C:0007H         LINE#         102
  C:0009H         LINE#         151
  C:000CH         LINE#         155
  -------         ENDMOD        ?C_STARTUP

  -------         MODULE        18B201602
  C:0000H         SYMBOL        _ICE_DUMMY_
  D:0080H         PUBLIC        P0
BL51 BANKED LINKER/LOCATER V5.12                                                      10/31/2010  19:51:55  PAGE 4


  D:0090H         PUBLIC        P1
  D:00A0H         PUBLIC        P2
  D:00B0H         PUBLIC        P3
  C:01DDH         PUBLIC        Error_Menu
  C:0153H         PUBLIC        ditab
  C:008FH         PUBLIC        Disp_Temperature
  C:02CEH         PUBLIC        _WriteOneChar
  B:00B0H.7       PUBLIC        DQ
  C:0253H         PUBLIC        Init_DS18B20
  B:0090H.5       PUBLIC        BEEP
  C:0301H         PUBLIC        beep
  C:0163H         PUBLIC        mytab
  C:0237H         PUBLIC        _lcd_wcmd
  C:0276H         PUBLIC        ReadOneChar
  C:029AH         PUBLIC        _delay1
  C:02E8H         PUBLIC        main
  C:02B4H         PUBLIC        _lcd_wdat
  C:016BH         PUBLIC        Ok_Menu
  D:0008H         PUBLIC        temp_data
  B:00A0H.7       PUBLIC        LCD_EN
  C:035EH         PUBLIC        _lcd_pos
  C:01A8H         PUBLIC        lcd_init
  C:0348H         PUBLIC        _Delay
  C:010FH         PUBLIC        cdis1
  C:0120H         PUBLIC        cdis2
  C:0131H         PUBLIC        cdis3
  C:0142H         PUBLIC        cdis4
  B:00A0H.6       PUBLIC        LCD_RS
  C:032EH         PUBLIC        lcd_busy
  B:0020H.0       PUBLIC        presence
  B:00A0H.5       PUBLIC        LCD_RW
  C:0319H         PUBLIC        writetab
  C:020BH         PUBLIC        Read_Temperature
  D:000AH         PUBLIC        display
  C:0296H         SYMBOL        L?0061
  -------         PROC          L?0060
  -------         ENDPROC       L?0060
  C:0296H         SYMBOL        L?0061
  -------         PROC          _DELAY1
  D:0006H         SYMBOL        ms
  -------         DO            
  D:0005H         SYMBOL        y
  -------         ENDDO         
  C:029AH         LINE#         31
  C:029AH         LINE#         32
  C:029AH         LINE#         34
  C:02A4H         LINE#         35
  C:02A4H         LINE#         36
  C:02ACH         LINE#         37
  C:02ACH         LINE#         38
  C:02ADH         LINE#         39
  C:02AEH         LINE#         40
  C:02AFH         LINE#         41
  C:02B0H         LINE#         42
  C:02B3H         LINE#         43
  C:02B3H         LINE#         44
  -------         ENDPROC       _DELAY1
BL51 BANKED LINKER/LOCATER V5.12                                                      10/31/2010  19:51:55  PAGE 5


  -------         PROC          LCD_BUSY
  -------         DO            
  B:0020H.1       SYMBOL        result
  -------         ENDDO         
  C:032EH         LINE#         50
  C:032EH         LINE#         51
  C:032EH         LINE#         53
  C:0330H         LINE#         54
  C:0332H         LINE#         55
  C:0334H         LINE#         56
  C:0338H         LINE#         57
  C:033DH         LINE#         58
  C:033FH         LINE#         59
  C:0341H         LINE#         60
  -------         ENDPROC       LCD_BUSY
  -------         PROC          L?0062
  -------         ENDPROC       L?0062
  -------         PROC          _LCD_WCMD
  D:0007H         SYMBOL        cmd
  C:0237H         LINE#         65
  C:0237H         LINE#         66
  C:0237H         LINE#         67
  C:023CH         LINE#         68
  C:023EH         LINE#         69
  C:0240H         LINE#         70
  C:0242H         LINE#         71
  C:0243H         LINE#         72
  C:0244H         LINE#         73
  C:0246H         LINE#         74
  C:024AH         LINE#         75
  C:024CH         LINE#         76
  C:0250H         LINE#         77
  C:0252H         LINE#         78
  -------         ENDPROC       _LCD_WCMD
  -------         PROC          _LCD_WDAT
  D:0007H         SYMBOL        dat
  C:02B4H         LINE#         84
  C:02B4H         LINE#         85
  C:02B4H         LINE#         86
  C:02B9H         LINE#         87
  C:02BBH         LINE#         88
  C:02BDH         LINE#         89
  C:02BFH         LINE#         90
  C:02C1H         LINE#         91
  C:02C5H         LINE#         92
  C:02C7H         LINE#         93
  C:02CBH         LINE#         94
  C:02CDH         LINE#         95
  -------         ENDPROC       _LCD_WDAT
  -------         PROC          LCD_INIT
  C:01A8H         LINE#         100
  C:01A8H         LINE#         101
  C:01A8H         LINE#         102
  C:01AAH         LINE#         103
  C:01ADH         LINE#         104
  C:01B2H         LINE#         105
  C:01B5H         LINE#         106
BL51 BANKED LINKER/LOCATER V5.12                                                      10/31/2010  19:51:55  PAGE 6


  C:01BAH         LINE#         107
  C:01BDH         LINE#         108
  C:01C2H         LINE#         109
  C:01C5H         LINE#         111
  C:01CAH         LINE#         112
  C:01CDH         LINE#         113
  C:01D2H         LINE#         114
  C:01D3H         LINE#         115
  C:01D6H         LINE#         116
  -------         ENDPROC       LCD_INIT
  -------         PROC          _LCD_POS
  D:0007H         SYMBOL        pos
  C:035EH         LINE#         121
  C:035EH         LINE#         122
  C:035EH         LINE#         123
  -------         ENDPROC       _LCD_POS
  -------         PROC          WRITETAB
  -------         DO            
  D:0006H         SYMBOL        i
  -------         ENDDO         
  C:0319H         LINE#         128
  C:0319H         LINE#         129
  C:0319H         LINE#         131
  C:031EH         LINE#         132
  C:0320H         LINE#         133
  C:032DH         LINE#         134
  -------         ENDPROC       WRITETAB
  -------         PROC          L?0063
  -------         ENDPROC       L?0063
  -------         PROC          _DELAY
  D:0006H         SYMBOL        num
  C:0348H         LINE#         139
  C:0348H         LINE#         140
  C:0348H         LINE#         141
  C:0351H         LINE#         142
  -------         ENDPROC       _DELAY
  -------         PROC          INIT_DS18B20
  C:0253H         LINE#         146
  C:0253H         LINE#         147
  C:0253H         LINE#         148
  C:0253H         LINE#         149
  C:0256H         LINE#         151
  C:0258H         LINE#         152
  C:025FH         LINE#         154
  C:025FH         LINE#         155
  C:0262H         LINE#         157
  C:0266H         LINE#         158
  C:026DH         LINE#         159
  C:026FH         LINE#         161
  C:0275H         LINE#         162
  -------         ENDPROC       INIT_DS18B20
  -------         PROC          READONECHAR
  -------         DO            
  D:0005H         SYMBOL        i
  D:0004H         SYMBOL        dat
  -------         ENDDO         
  C:0276H         LINE#         167
BL51 BANKED LINKER/LOCATER V5.12                                                      10/31/2010  19:51:55  PAGE 7


  C:0276H         LINE#         168
  C:0276H         LINE#         169
  C:0277H         LINE#         170
  C:0278H         LINE#         172
  C:027AH         LINE#         173
  C:027AH         LINE#         174
  C:027CH         LINE#         175
  C:0280H         LINE#         176
  C:0282H         LINE#         178
  C:0285H         LINE#         179
  C:0288H         LINE#         180
  C:028FH         LINE#         181
  C:0291H         LINE#         183
  C:0295H         LINE#         184
  -------         ENDPROC       READONECHAR
  -------         PROC          _WRITEONECHAR
  D:0005H         SYMBOL        dat
  -------         DO            
  D:0003H         SYMBOL        i
  -------         ENDDO         
  C:02CEH         LINE#         188
  C:02D0H         LINE#         189
  C:02D0H         LINE#         190
  C:02D0H         LINE#         191
  C:02D2H         LINE#         192
  C:02D2H         LINE#         193
  C:02D4H         LINE#         194
  C:02D8H         LINE#         195
  C:02DFH         LINE#         197
  C:02E1H         LINE#         198
  C:02E5H         LINE#         199
  C:02E7H         LINE#         200
  -------         ENDPROC       _WRITEONECHAR
  -------         PROC          READ_TEMPERATURE
  C:020BH         LINE#         204
  C:020BH         LINE#         205
  C:020BH         LINE#         206
  C:020EH         LINE#         208
  C:0213H         LINE#         209
  C:0218H         LINE#         211
  C:021BH         LINE#         212
  C:0220H         LINE#         213
  C:0225H         LINE#         215
  C:022AH         LINE#         216
  C:022FH         LINE#         217
  -------         ENDPROC       READ_TEMPERATURE
  -------         PROC          DISP_TEMPERATURE
  C:008FH         LINE#         221
  C:008FH         LINE#         222
  C:008FH         LINE#         223
  C:0095H         LINE#         224
  C:009DH         LINE#         226
  C:00B0H         LINE#         227
  C:00B8H         LINE#         228
  C:00C1H         LINE#         229
  C:00CBH         LINE#         230
  C:00D7H         LINE#         232
BL51 BANKED LINKER/LOCATER V5.12                                                      10/31/2010  19:51:55  PAGE 8


  C:00DCH         LINE#         233
  C:00DCH         LINE#         234
  C:00DFH         LINE#         235
  C:00E4H         LINE#         236
  C:00E7H         LINE#         237
  C:00E7H         LINE#         239
  C:00ECH         LINE#         240
  C:00F1H         LINE#         241
  C:00F6H         LINE#         242
  C:00FBH         LINE#         243
  C:0100H         LINE#         244
  C:0105H         LINE#         245
  C:010AH         LINE#         246
  -------         ENDPROC       DISP_TEMPERATURE
  -------         PROC          BEEP
  -------         DO            
  D:0005H         SYMBOL        y
  -------         ENDDO         
  C:0301H         LINE#         252
  C:0301H         LINE#         253
  C:0301H         LINE#         255
  C:0303H         LINE#         256
  C:0303H         LINE#         257
  C:030AH         LINE#         258
  C:030CH         LINE#         259
  C:0310H         LINE#         260
  C:0312H         LINE#         261
  -------         ENDPROC       BEEP
  -------         PROC          OK_MENU
  -------         DO            
  D:0006H         SYMBOL        m
  -------         ENDDO         
  C:016BH         LINE#         266
  C:016BH         LINE#         267
  C:016BH         LINE#         269
  C:016EH         LINE#         271
  C:0173H         LINE#         272
  C:0175H         LINE#         273
  C:017DH         LINE#         274
  C:017DH         LINE#         275
  C:0180H         LINE#         276
  C:0181H         LINE#         277
  C:0183H         LINE#         279
  C:0188H         LINE#         280
  C:018AH         LINE#         281
  C:0192H         LINE#         282
  C:0192H         LINE#         283
  C:0195H         LINE#         284
  C:0196H         LINE#         285
  C:0198H         LINE#         287
  C:019BH         LINE#         288
  C:019EH         LINE#         289
  C:01A3H         LINE#         290
  -------         ENDPROC       OK_MENU
  -------         PROC          ERROR_MENU
  -------         DO            
  D:0006H         SYMBOL        m
BL51 BANKED LINKER/LOCATER V5.12                                                      10/31/2010  19:51:55  PAGE 9


  -------         ENDDO         
  C:01DDH         LINE#         296
  C:01DDH         LINE#         297
  C:01DDH         LINE#         299
  C:01E0H         LINE#         301
  C:01E5H         LINE#         302
  C:01E7H         LINE#         303
  C:01EFH         LINE#         304
  C:01EFH         LINE#         305
  C:01F2H         LINE#         306
  C:01F3H         LINE#         307
  C:01F5H         LINE#         309
  C:01FAH         LINE#         310
  C:01FCH         LINE#         311
  C:0204H         LINE#         312
  C:0204H         LINE#         313
  C:0207H         LINE#         314
  C:0208H         LINE#         315
  C:020AH         LINE#         316
  -------         ENDPROC       ERROR_MENU
  -------         PROC          MAIN
  C:02E8H         LINE#         321
  C:02E8H         LINE#         322
  C:02E8H         LINE#         323
  C:02EBH         LINE#         326
  C:02EBH         LINE#         327
  C:02EEH         LINE#         328
  C:02F1H         LINE#         329
  C:02F1H         LINE#         330
  C:02F4H         LINE#         332
  C:02F7H         LINE#         335
  C:02F7H         LINE#         336
  C:02FAH         LINE#         337
  C:02FDH         LINE#         338
  C:02FDH         LINE#         339
  C:0300H         LINE#         340
  -------         ENDPROC       MAIN
  -------         ENDMOD        18B201602

Program Size: data=16.2 xdata=0 code=869
LINK/LOCATE RUN COMPLETE.  0 WARNING(S),  0 ERROR(S)
