A51 MACRO ASSEMBLER  12864                                                                07/29/2009 20:03:06 PAGE     1


MACRO ASSEMBLER A51 V7.09
OBJECT MODULE PLACED IN 12864.OBJ
ASSEMBLER INVOKED BY: C:\Keil\C51\BIN\A51.EXE 12864.ASM SET(SMALL) DEBUG EP

LOC  OBJ            LINE     SOURCE

                       1     
                       2     
                       3                      
  00A5                 4                                     RW        BIT     P2.5                         
  00A6                 5                     DI        BIT     P2.6
  00A7                 6                                     E         BIT     P2.7
  00B2                 7                                     CS1       BIT     P3.2 
  00B3                 8                                     CS2       BIT     P3.3                                 
  00B7                 9                     RST       BIT     P3.7       
                      10                                                                                       
  0080                11                     LCD_DATA  EQU     P0 
                      12     
                      13     ;***************************************
  0030                14     VAR            EQU     30H
  0031                15     VAR1           EQU     31H
  0032                16     VAR2           EQU     32H
  0033                17     VAR3           EQU     33H
  0034                18     VAR4           EQU     34H
  0035                19     X_CO           EQU     35H
  0036                20     AY_CO          EQU     36H
  0037                21     REG0           EQU     37H
  0038                22     REG1           EQU     38H
  0039                23     REG2           EQU     39H
  003A                24     REG3           EQU     3AH
  003B                25     REG4           EQU     3BH
  003C                26     REG5           EQU     3CH
  003D                27     REG6           EQU     3DH
  003E                28     REG7           EQU     3EH
  003F                29     REG_T          EQU     3FH
                      30     
0000                  31                     ORG     00H
0000 802E             32                     JMP     HELLO
                      33     
0030                  34                     ORG     30H
0030 758170           35     HELLO:          MOV     SP,#70H
0033 7590FF           36                     MOV     P1,#0FFH                 
0036 75B024           37                     MOV     P3,#00100100B
0039 518C             38                     CALL    DELAY
                      39     ;****************************************
003B 758000           40     START:          MOV     P0,#00H
003E 5181             41                     CALL    RESET                   ;MODULE INIT.
0040 75303F           42                     MOV     VAR,#3FH                ;DISPLAY ON.
0043 5148             43                     CALL    WC
                      44     
0045 7580FF           45                     MOV     P0,#0FFH
0048 11F7             46                     CALL    PAGE1
004A 5196             47                     CALL    DELAYA
004C 758000           48                     MOV     P0,#00H
004F 5196             49                     CALL    DELAYA
0051 7580FF           50                     MOV     P0,#0FFH
0054 3159             51                     CALL    PAGE2
0056 5196             52                     CALL    DELAYA
0058 758000           53                     MOV     P0,#00H
005B 5196             54                     CALL    DELAYA
005D 7580FF           55                     MOV     P0,#0FFH
0060 31B0             56                     CALL    PAGE3
0062 5196             57                     CALL    DELAYA
0064 758000           58                     MOV     P0,#00H
A51 MACRO ASSEMBLER  12864                                                                07/29/2009 20:03:06 PAGE     2

0067 5196             59                     CALL    DELAYA
0069 80D0             60                     JMP     START
                      61     ;****************************************
006B 7530C0           62     Y_AXIS:         MOV     VAR,#0C0H                ;SPECIFIES A RAM LINE DISPLAY
006E 5148             63                     CALL    WC                      ;AT THE TOP OF SCREEN.
0070 7530B8           64                     MOV     VAR,#0B8H                ;SETS X ADDRESS.
0073 5148             65                     CALL    WC
0075 753040           66                     MOV     VAR,#40H                ;SETS THE Y ADDRESS.
0078 5148             67                     CALL    WC
007A 11D1             68                     CALL    ICON_S
                      69     ;****************************************
007C 7530B9           70                     MOV     VAR,#0B9H
007F 5148             71                     CALL    WC
0081 753040           72                     MOV     VAR,#40H
0084 5148             73                     CALL    WC
0086 11D1             74                     CALL    ICON_S
                      75     ;****************************************
0088 7530BA           76                     MOV     VAR,#0BAH
008B 5148             77                     CALL    WC
008D 753040           78                     MOV     VAR,#40H
0090 5148             79                     CALL    WC
0092 11D1             80                     CALL    ICON_S
                      81     ;****************************************
0094 7530BB           82                     MOV     VAR,#0BBH
0097 5148             83                     CALL    WC
0099 753040           84                     MOV     VAR,#40H
009C 5148             85                     CALL    WC
009E 11D1             86                     CALL    ICON_S
                      87     ;****************************************
00A0 7530BC           88                     MOV     VAR,#0BCH
00A3 5148             89                     CALL    WC
00A5 753040           90                     MOV     VAR,#40H
00A8 5148             91                     CALL    WC
00AA 11D1             92                     CALL    ICON_S
                      93     ;****************************************
00AC 7530BD           94                     MOV     VAR,#0BDH
00AF 5148             95                     CALL    WC
00B1 753040           96                     MOV     VAR,#40H
00B4 5148             97                     CALL    WC
00B6 11D1             98                     CALL    ICON_S
                      99     ;****************************************
00B8 7530BE          100                     MOV     VAR,#0BEH
00BB 5148            101                     CALL    WC
00BD 753040          102                     MOV     VAR,#40H
00C0 5148            103                     CALL    WC
00C2 11D1            104                     CALL    ICON_S
                     105     ;****************************************
00C4 7530BF          106                     MOV     VAR,#0BFH
00C7 5148            107                     CALL    WC
00C9 753040          108                     MOV     VAR,#40H
00CC 5148            109                     CALL    WC
00CE 11D1            110                     CALL    ICON_S
00D0 22              111                     RET
                     112     
00D1 7820            113     ICON_S:         MOV     R0,#32
00D3 E531            114     ICON_S1:        MOV     A,VAR1
00D5 F530            115                     MOV     VAR,A
00D7 515B            116                     CALL    WD1
00D9 E532            117                     MOV     A,VAR2
00DB F530            118                     MOV     VAR,A
00DD 515B            119                     CALL    WD1
00DF D8F2            120                     DJNZ    R0,ICON_S1
                     121     
00E1 753040          122                     MOV     VAR,#40H                ;SETS THE Y ADDRESS=0
00E4 5148            123                     CALL    WC
                     124     
A51 MACRO ASSEMBLER  12864                                                                07/29/2009 20:03:06 PAGE     3

00E6 7820            125                     MOV     R0,#32
00E8 E533            126     ICON_S12:       MOV     A,VAR3
00EA F530            127                     MOV     VAR,A
00EC 516E            128                     CALL    WD2
00EE E534            129                     MOV     A,VAR4
00F0 F530            130                     MOV     VAR,A
00F2 516E            131                     CALL    WD2
00F4 D8F2            132                     DJNZ    R0,ICON_S12
00F6 22              133                     RET
                     134     
                     135     ;****************************************
00F7 7536C0          136     PAGE1:          MOV     AY_CO,#0C0H
00FA 753701          137                     MOV     REG0,#01H
00FD 753800          138                     MOV     REG1,#00H
0100 753900          139                     MOV     REG2,#00H
0103 753A00          140                     MOV     REG3,#00H
0106 753B00          141                     MOV     REG4,#00H
0109 753C00          142                     MOV     REG5,#00H
010C 753D00          143                     MOV     REG6,#00H
010F 753E00          144                     MOV     REG7,#00H
                     145     
0112 7E40            146                     MOV     R6,#64
0114 9002A6          147     PAGE_UP:        MOV     DPTR,#PAGER_1
0117 753F37          148                     MOV     REG_T,#REG0
011A 0536            149                     INC     AY_CO
011C 5107            150                     CALL    PAGES
011E 519D            151                     CALL    DELAYB
0120 D3              152                     SETB    C
0121 C537            153                     XCH     A,REG0
0123 33              154                     RLC     A
0124 C537            155                     XCH     A,REG0
0126 C538            156                     XCH     A,REG1
0128 33              157                     RLC     A
0129 C538            158                     XCH     A,REG1
012B C539            159                     XCH     A,REG2
012D 33              160                     RLC     A
012E C539            161                     XCH     A,REG2
0130 C53A            162                     XCH     A,REG3
0132 33              163                     RLC     A
0133 C53A            164                     XCH     A,REG3
0135 C53B            165                     XCH     A,REG4
0137 33              166                     RLC     A
0138 C53B            167                     XCH     A,REG4
013A C53C            168                     XCH     A,REG5
013C 33              169                     RLC     A
013D C53C            170                     XCH     A,REG5
013F C53D            171                     XCH     A,REG6
0141 33              172                     RLC     A
0142 C53D            173                     XCH     A,REG6
0144 C53E            174                     XCH     A,REG7
0146 33              175                     RLC     A
0147 C53E            176                     XCH     A,REG7
0149 DEC9            177                     DJNZ    R6,PAGE_UP
014B 7536C0          178                     MOV     AY_CO,#0C0H
014E 753F37          179                     MOV     REG_T,#REG0
0151 9002A6          180                     MOV     DPTR,#PAGER_1
0154 5107            181                     CALL    PAGES
0156 5196            182                     CALL    DELAYA
0158 22              183                     RET
                     184     ;****************************************
0159 7536C0          185     PAGE2:          MOV     AY_CO,#0C0H
015C 753701          186                     MOV     REG0,#01H
015F 753800          187                     MOV     REG1,#00H
0162 753900          188                     MOV     REG2,#00H
0165 753A00          189                     MOV     REG3,#00H
0168 753B00          190                     MOV     REG4,#00H
A51 MACRO ASSEMBLER  12864                                                                07/29/2009 20:03:06 PAGE     4

016B 753C00          191                     MOV     REG5,#00H
016E 753D00          192                     MOV     REG6,#00H
0171 753E00          193                     MOV     REG7,#00H
                     194     
0174 7E3C            195                     MOV     R6,#60
0176 9006A6          196     PAGE_2_UP:      MOV     DPTR,#PAGER_2
0179 753F37          197                     MOV     REG_T,#REG0
017C 0536            198                     INC     AY_CO
017E 5107            199                     CALL    PAGES
0180 519D            200                     CALL    DELAYB
0182 D3              201                     SETB    C
0183 C537            202                     XCH     A,REG0
0185 33              203                     RLC     A
0186 C537            204                     XCH     A,REG0
0188 C538            205                     XCH     A,REG1
018A 33              206                     RLC     A
018B C538            207                     XCH     A,REG1
018D C539            208                     XCH     A,REG2
018F 33              209                     RLC     A
0190 C539            210                     XCH     A,REG2
0192 C53A            211                     XCH     A,REG3
0194 33              212                     RLC     A
0195 C53A            213                     XCH     A,REG3
0197 C53B            214                     XCH     A,REG4
0199 33              215                     RLC     A
019A C53B            216                     XCH     A,REG4
019C C53C            217                     XCH     A,REG5
019E 33              218                     RLC     A
019F C53C            219                     XCH     A,REG5
01A1 C53D            220                     XCH     A,REG6
01A3 33              221                     RLC     A
01A4 C53D            222                     XCH     A,REG6
01A6 C53E            223                     XCH     A,REG7
01A8 33              224                     RLC     A
01A9 C53E            225                     XCH     A,REG7
01AB DEC9            226                     DJNZ    R6,PAGE_2_UP
01AD 5196            227                     CALL    DELAYA
01AF 22              228                     RET
                     229     ;****************************************
01B0 7536C0          230     PAGE3:          MOV     AY_CO,#0C0H
01B3 753701          231                     MOV     REG0,#01H
01B6 753800          232                     MOV     REG1,#00H
01B9 753900          233                     MOV     REG2,#00H
01BC 753A00          234                     MOV     REG3,#00H
01BF 753B00          235                     MOV     REG4,#00H
01C2 753C00          236                     MOV     REG5,#00H
01C5 753D00          237                     MOV     REG6,#00H
01C8 753E00          238                     MOV     REG7,#00H
                     239     
01CB 7E40            240                     MOV     R6,#64
01CD 900AA6          241     PAGE_3_UP:      MOV     DPTR,#PAGER_3
01D0 753F37          242                     MOV     REG_T,#REG0
01D3 0536            243                     INC     AY_CO
01D5 5107            244                     CALL    PAGES
01D7 519D            245                     CALL    DELAYB
01D9 D3              246                     SETB    C
01DA C537            247                     XCH     A,REG0
01DC 33              248                     RLC     A
01DD C537            249                     XCH     A,REG0
01DF C538            250                     XCH     A,REG1
01E1 33              251                     RLC     A
01E2 C538            252                     XCH     A,REG1
01E4 C539            253                     XCH     A,REG2
01E6 33              254                     RLC     A
01E7 C539            255                     XCH     A,REG2
01E9 C53A            256                     XCH     A,REG3
A51 MACRO ASSEMBLER  12864                                                                07/29/2009 20:03:06 PAGE     5

01EB 33              257                     RLC     A
01EC C53A            258                     XCH     A,REG3
01EE C53B            259                     XCH     A,REG4
01F0 33              260                     RLC     A
01F1 C53B            261                     XCH     A,REG4
01F3 C53C            262                     XCH     A,REG5
01F5 33              263                     RLC     A
01F6 C53C            264                     XCH     A,REG5
01F8 C53D            265                     XCH     A,REG6
01FA 33              266                     RLC     A
01FB C53D            267                     XCH     A,REG6
01FD C53E            268                     XCH     A,REG7
01FF 33              269                     RLC     A
0200 C53E            270                     XCH     A,REG7
0202 DEC9            271                     DJNZ    R6,PAGE_3_UP
0204 5196            272                     CALL    DELAYA
0206 22              273                     RET
                     274     
0207 E536            275     PAGES:          MOV     A,AY_CO
0209 F530            276                     MOV     VAR,A                   ;SPECIFIES A RAM LINE DISPLAY
020B 5148            277                     CALL    WC                      ;AT THE TOP OF SCREEN.
020D 7535B8          278                     MOV     X_CO,#0B8H
                     279     
0210 7F08            280                     MOV     R7,#08H
0212 E535            281     PAGE_LOOP:      MOV     A,X_CO
0214 F530            282                     MOV     VAR,A                   ;SETS X ADDRESS.
0216 5148            283                     CALL    WC
0218 0535            284                     INC     X_CO
021A 753040          285                     MOV     VAR,#40H                ;SETS THE Y ADDRESS.
021D 5148            286                     CALL    WC
021F 5124            287                     CALL    PAGER
0221 DFEF            288                     DJNZ    R7,PAGE_LOOP
0223 22              289                     RET
                     290     
0224 7840            291     PAGER:          MOV     R0,#64
0226 E4              292     PAGE_ST:        CLR     A
0227 93              293                     MOVC    A,@A+DPTR
0228 A93F            294                     MOV     R1,REG_T
022A 57              295                     ANL     A,@R1
022B F530            296                     MOV     VAR,A
022D 515B            297                     CALL    WD1
022F A3              298                     INC     DPTR
0230 D8F4            299                     DJNZ    R0,PAGE_ST
                     300     
0232 753040          301                     MOV     VAR,#40H                ;SETS THE Y ADDRESS=0
0235 5148            302                     CALL    WC
                     303     
0237 7840            304                     MOV     R0,#64
                     305     
0239 E4              306     PAGE_END:       CLR     A
023A 93              307                     MOVC    A,@A+DPTR
023B A93F            308                     MOV     R1,REG_T
023D 57              309                     ANL     A,@R1
023E F530            310                     MOV     VAR,A
0240 516E            311                     CALL    WD2
0242 A3              312                     INC     DPTR
0243 D8F4            313                     DJNZ    R0,PAGE_END
0245 053F            314                     INC     REG_T
0247 22              315                     RET
                     316     ;**********************************************
                     317     
0248 E530            318            WC:    MOV     A,VAR
024A F580            319                     MOV     LCD_DATA,A
024C C2A6            320                     CLR     DI            ;SET INSTRUCTION MODE
024E C2A5            321                     CLR     RW            ;SET WRITE MODE
0250 D2B2            322                     SETB    CS1           ;SELECT CS1
A51 MACRO ASSEMBLER  12864                                                                07/29/2009 20:03:06 PAGE     6

0252 D2B3            323                     SETB    CS2           ;SELECT CS2
0254 D2A7            324                     SETB    E             ;ENABLE
0256 00              325                     NOP
0257 C2A7            326                     CLR     E             ;DISABLE
0259 00              327                     NOP
025A 22              328                     RET
                     329     
025B E530            330             WD1:    MOV     A,VAR
025D F580            331                     MOV     LCD_DATA,A
025F D2A6            332                     SETB    DI            ;SET DATA MODE
0261 C2A5            333                     CLR     RW            ;SET WRITE MODE
0263 D2B2            334                     SETB    CS1           ;SELECT CS1
0265 C2B3            335                     CLR     CS2           ;CANCEL CS2
0267 D2A7            336                     SETB    E             ;ENABLE
0269 00              337                     NOP
026A C2A7            338                     CLR     E             ;DISABLE
026C 00              339                     NOP
026D 22              340                     RET
                     341     
026E E530            342             WD2:    MOV     A,VAR
0270 F580            343                     MOV     LCD_DATA,A
0272 D2A6            344                     SETB    DI           ;SET DATA MODE
0274 C2A5            345                     CLR     RW           ;SET WRITE MODE
0276 C2B2            346                     CLR     CS1          ;CANCEL CS1
0278 D2B3            347                     SETB    CS2          ;SELECT CS2
027A D2A7            348                     SETB    E            ;ENABLE
027C 00              349                     NOP
027D C2A7            350                     CLR     E            ;DISABLE
027F 00              351                     NOP
0280 22              352                     RET
                     353     
0281 C2B7            354           RESET:    CLR     RST          ;SET RST GO HIGH
0283 518C            355                     CALL    DELAY
0285 D2B7            356                     SETB    RST
0287 518C            357                     CALL    DELAY
0289 22              358                     RET
                     359     
028A 80FE            360     PAUSE:          JMP     PAUSE
                     361     
                     362     
                     363     ;*************************************
                     364     ;*         DELAY TIMER               *
                     365     ;*************************************
028C                 366     DELAY:
028C 79FF            367                     MOV     R1,#0FFH
028E 7AFF            368     DELAY1:         MOV     R2,#0FFH
0290 00              369     DELAY2:         NOP
0291 DAFD            370                     DJNZ    R2,DELAY2
0293 D9F9            371                     DJNZ    R1,DELAY1
0295 22              372                     RET
                     373     
0296 7B05            374     DELAYA:         MOV     R3,#05H
0298 518C            375     DELAYA1:        CALL    DELAY
029A DBFC            376                     DJNZ    R3,DELAYA1
029C 22              377                     RET
029D 7901            378     DELAYB:         MOV     R1,#01H
029F 7A1F            379     DELAYB1:        MOV     R2,#1FH
02A1 DAFE            380     DELAYB2:        DJNZ    R2,DELAYB2
02A3 DBFA            381                     DJNZ    R3,DELAYB1
02A5 22              382                     RET
                     383     
02A6                 384     PAGER_1:
02A6 00000000        385     DB  000H,000H,000H,000H,000H,000H,000H,000H,000H,000H,000H,000H,000H,000H,000H,000H
02AA 00000000                
02AE 00000000                
02B2 00000000                
A51 MACRO ASSEMBLER  12864                                                                07/29/2009 20:03:06 PAGE     7

02B6 00000000        386     DB  000H,000H,000H,000H,000H,000H,000H,000H,000H,000H,000H,000H,000H,000H,000H,000H
02BA 00000000                
02BE 00000000                
02C2 00000000                
02C6 00000000        387     DB  000H,000H,000H,000H,000H,000H,000H,000H,000H,000H,000H,000H,000H,000H,000H,000H
02CA 00000000                
02CE 00000000                
02D2 00000000                
02D6 00000000        388     DB  000H,000H,000H,000H,000H,000H,000H,000H,000H,000H,000H,000H,000H,000H,000H,000H
02DA 00000000                
02DE 00000000                
02E2 00000000                
02E6 00000000        389     DB  000H,000H,000H,000H,000H,000H,000H,000H,000H,000H,000H,000H,000H,000H,000H,000H
02EA 00000000                
02EE 00000000                
02F2 00000000                
02F6 00000000        390     DB  000H,000H,000H,000H,000H,000H,000H,000H,000H,000H,000H,000H,000H,000H,000H,000H
02FA 00000000                
02FE 00000000                
0302 00000000                
0306 00000000        391     DB  000H,000H,000H,000H,000H,000H,000H,000H,000H,000H,000H,000H,000H,080H,040H,030H
030A 00000000                
030E 00000000                
0312 00804030                
0316 10F8F414        392     DB  010H,0F8H,0F4H,014H,014H,014H,0F4H,0E4H,008H,010H,030H,040H,080H,000H,000H,000H
031A 1414F4E4                
031E 08103040                
0322 80000000                
0326 00000004        393     DB  000H,000H,000H,004H,0FCH,0FCH,0FCH,004H,004H,00CH,00CH,03CH,0FCH,0F8H,0F0H,000H
032A FCFCFC04                
032E 040C0C3C                
0332 FCF8F000                
0336 000004FC        394     DB  000H,000H,004H,0FCH,0FCH,0FCH,00CH,004H,00CH,00CH,09CH,0FCH,0FCH,0F8H,000H,000H
033A FCFC0C04                
033E 0C0C9CFC                
0342 FCF80000                
0346 0004FCFC        395     DB  000H,004H,0FCH,0FCH,0FCH,004H,004H,004H,08CH,08CH,01CH,03CH,038H,000H,000H,000H
034A FC040404                
034E 8C8C1C3C                
0352 38000000                
0356 C0E0F8F8        396     DB  0C0H,0E0H,0F8H,0F8H,03CH,00CH,00CH,004H,00CH,00CH,03CH,07CH,07CH,000H,000H,004H
035A 3C0C0C04                
035E 0C0C3C7C                
0362 7C000004                
0366 FCFCFC04        397     DB  0FCH,0FCH,0FCH,004H,000H,000H,000H,004H,0FCH,0FCH,0FCH,004H,000H,000H,000H,000H
036A 00000004                
036E FCFCFC04                
0372 00000000                
0376 040404FC        398     DB  004H,004H,004H,0FCH,0FCH,0FCH,004H,004H,004H,000H,000H,000H,000H,004H,0FCH,0FCH
037A FCFC0404                
037E 04000000                
0382 0004FCFC                
0386 FCFCF0C0        399     DB  0FCH,0FCH,0F0H,0C0H,000H,000H,004H,0FCH,0FCH,004H,000H,000H,000H,01FH,020H,0C0H
038A 000004FC                
038E FC040000                
0392 001F20C0                
0396 C07F7F41        400     DB  0C0H,07FH,07FH,041H,007H,01FH,079H,060H,040H,080H,0C0H,020H,01FH,000H,000H,000H
039A 071F7960                
039E 4080C020                
03A2 1F000000                
03A6 00000000        401     DB  000H,000H,000H,000H,0FFH,0FFH,0FFH,008H,008H,00CH,00CH,00FH,00FH,007H,003H,000H
03AA FFFFFF08                
03AE 080C0C0F                
03B2 0F070300                
03B6 000000FF        402     DB  000H,000H,000H,0FFH,0FFH,0FFH,004H,01CH,07EH,0FEH,0FFH,0E7H,083H,001H,000H,000H
03BA FFFF041C                
A51 MACRO ASSEMBLER  12864                                                                07/29/2009 20:03:06 PAGE     8

03BE 7EFEFFE7                
03C2 83010000                
03C6 0000FFFF        403     DB  000H,000H,0FFH,0FFH,0FFH,004H,004H,00EH,03FH,03FH,000H,000H,000H,000H,000H,000H
03CA FF04040E                
03CE 3F3F0000                
03D2 00000000                
03D6 FFFFFFE1        404     DB  0FFH,0FFH,0FFH,0E1H,000H,000H,000H,000H,000H,000H,000H,080H,080H,000H,000H,000H
03DA 00000000                
03DE 00000080                
03E2 80000000                
03E6 FFFFFF04        405     DB  0FFH,0FFH,0FFH,004H,004H,004H,004H,004H,0FFH,0FFH,0FFH,000H,000H,000H,000H,000H
03EA 04040404                
03EE FFFFFF00                
03F2 00000000                
03F6 000000FF        406     DB  000H,000H,000H,0FFH,0FFH,0FFH,000H,000H,000H,000H,000H,000H,000H,000H,0FFH,0FFH
03FA FFFF0000                
03FE 00000000                
0402 0000FFFF                
0406 00030F3F        407     DB  000H,003H,00FH,03FH,0FFH,0FCH,0F0H,0FFH,0FFH,000H,000H,000H,000H,000H,000H,000H
040A FFFCF0FF                
040E FF000000                
0412 00000000                
0416 00010202        408     DB  000H,001H,002H,002H,002H,002H,002H,002H,001H,000H,000H,000H,000H,000H,000H,000H
041A 02020202                
041E 01000000                
0422 00000000                
0426 00000008        409     DB  000H,000H,000H,008H,00FH,00FH,00FH,008H,000H,000H,000H,000H,000H,000H,000H,000H
042A 0F0F0F08                
042E 00000000                
0432 00000000                
0436 0000080F        410     DB  000H,000H,008H,00FH,00FH,00FH,008H,000H,000H,003H,00FH,00FH,00FH,00CH,008H,000H
043A 0F0F0800                
043E 00030F0F                
0442 0F0C0800                
0446 00080F0F        411     DB  000H,008H,00FH,00FH,00FH,008H,008H,008H,00CH,00CH,00EH,00FH,007H,000H,000H,000H
044A 0F080808                
044E 0C0C0E0F                
0452 07000000                
0456 0003070F        412     DB  000H,003H,007H,00FH,00EH,00CH,00CH,008H,00CH,00CH,00FH,007H,001H,000H,000H,008H
045A 0E0C0C08                
045E 0C0C0F07                
0462 01000008                
0466 0F0F0F08        413     DB  00FH,00FH,00FH,008H,000H,000H,000H,008H,00FH,00FH,00FH,008H,000H,000H,000H,000H
046A 00000008                
046E 0F0F0F08                
0472 00000000                
0476 0808080F        414     DB  008H,008H,008H,00FH,00FH,00FH,008H,008H,008H,000H,000H,000H,000H,008H,00FH,00FH
047A 0F0F0808                
047E 08000000                
0482 00080F0F                
0486 08000000        415     DB  008H,000H,000H,000H,000H,003H,00FH,00FH,00FH,000H,000H,000H,000H,000H,000H,000H
048A 00030F0F                
048E 0F000000                
0492 00000000                
0496 00000000        416     DB  000H,000H,000H,000H,000H,000H,000H,000H,000H,000H,000H,000H,000H,000H,000H,000H
049A 00000000                
049E 00000000                
04A2 00000000                
04A6 00000000        417     DB  000H,000H,000H,000H,000H,000H,000H,000H,000H,000H,000H,000H,080H,080H,080H,080H
04AA 00000000                
04AE 00000000                
04B2 80808080                
04B6 8898B8F8        418     DB  088H,098H,0B8H,0F8H,0F0H,0F0H,080H,080H,0C0H,0F0H,0F8H,0B8H,098H,090H,0C0H,0C0H
04BA F0F08080                
04BE C0F0F8B8                
04C2 9890C0C0                
A51 MACRO ASSEMBLER  12864                                                                07/29/2009 20:03:06 PAGE     9

04C6 C0C08000        419     DB  0C0H,0C0H,080H,000H,000H,000H,000H,000H,000H,000H,000H,000H,000H,000H,000H,000H
04CA 00000000                
04CE 00000000                
04D2 00000000                
04D6 00F8F8F8        420     DB  000H,0F8H,0F8H,0F8H,018H,000H,000H,000H,000H,000H,000H,000H,000H,000H,000H,000H
04DA 18000000                
04DE 00000000                
04E2 00000000                
04E6 00000040        421     DB  000H,000H,000H,040H,040H,060H,060H,060H,0E0H,0F0H,0F0H,038H,038H,030H,000H,0C0H
04EA 40606060                
04EE E0F0F038                
04F2 383000C0                
04F6 C0C08000        422     DB  0C0H,0C0H,080H,000H,000H,0F8H,0F8H,0F8H,018H,000H,000H,000H,000H,000H,000H,000H
04FA 00F8F8F8                
04FE 18000000                
0502 00000000                
0506 000000F8        423     DB  000H,000H,000H,0F8H,0F8H,0F8H,000H,000H,000H,000H,000H,000H,000H,000H,0F8H,0F8H
050A F8F80000                
050E 00000000                
0512 0000F8F8                
0516 F8100000        424     DB  0F8H,010H,000H,000H,000H,000H,000H,000H,000H,000H,000H,000H,000H,000H,000H,000H
051A 00000000                
051E 00000000                
0522 00000000                
0526 00000000        425     DB  000H,000H,000H,000H,000H,000H,000H,000H,000H,000H,0C0H,0C0H,0C0H,0C3H,0CFH,0FEH
052A 00000000                
052E 0000C0C0                
0532 C0C3CFFE                
0536 FCF8D0FF        426     DB  0FCH,0F8H,0D0H,0FFH,0FFH,0FFH,0C0H,0C0H,0FFH,0FFH,0FFH,0F0H,0FCH,0DFH,0CFH,0C6H
053A FFFFC0C0                
053E FFFFFFF0                
0542 FCDFCFC6                
0546 E6E0E0C0        427     DB  0E6H,0E0H,0E0H,0C0H,000H,000H,000H,000H,0FFH,0FFH,0FFH,003H,003H,003H,003H,003H
054A 00000000                
054E FFFFFF03                
0552 03030303                
0556 03FFFFFF        428     DB  003H,0FFH,0FFH,0FFH,003H,003H,003H,003H,003H,003H,0FFH,0FFH,0FFH,003H,000H,000H
055A 03030303                
055E 0303FFFF                
0562 FF030000                
0566 00000808        429     DB  000H,000H,008H,008H,008H,008H,0C8H,0F8H,0FFH,0FFH,0FFH,0C8H,08CH,08CH,00CH,060H
056A 0808C8F8                
056E FFFFFFC8                
0572 8C8C0C60                
0576 E3E7C703        430     DB  0E3H,0E7H,0C7H,003H,000H,0FFH,0FFH,0FFH,000H,000H,000H,000H,000H,000H,002H,002H
057A 00FFFFFF                
057E 00000000                
0582 00000202                
0586 028282FF        431     DB  002H,082H,082H,0FFH,0FFH,0FFH,0C2H,063H,063H,062H,0C2H,0C2H,0C2H,042H,07FH,07FH
058A FFFFC263                
058E 6362C2C2                
0592 C2427F7F                
0596 7F42E2E3        432     DB  07FH,042H,0E2H,0E3H,0E3H,043H,003H,000H,000H,000H,000H,000H,000H,000H,000H,000H
059A E3430300                
059E 00000000                
05A2 00000000                
05A6 00000000        433     DB  000H,000H,000H,000H,000H,000H,000H,000H,000H,000H,000H,000H,000H,000H,000H,000H
05AA 00000000                
05AE 00000000                
05B2 00000000                
05B6 FFFEFE26        434     DB  0FFH,0FEH,0FEH,026H,026H,026H,026H,026H,026H,026H,026H,0FEH,0FFH,0FFH,0FEH,000H
05BA 26262626                
05BE 262626FE                
05C2 FFFFFE00                
05C6 00000000        435     DB  000H,000H,000H,000H,000H,000H,000H,000H,007H,007H,007H,001H,001H,001H,001H,001H
05CA 00000000                
A51 MACRO ASSEMBLER  12864                                                                07/29/2009 20:03:06 PAGE    10

05CE 07070701                
05D2 01010101                
05D6 01FFFFFF        436     DB  001H,0FFH,0FFH,0FFH,001H,001H,001H,001H,001H,001H,007H,007H,007H,000H,000H,000H
05DA 01010101                
05DE 01010707                
05E2 07000000                
05E6 00006070        437     DB  000H,000H,060H,070H,03CH,01FH,00FH,007H,0FFH,0FFH,0FFH,003H,017H,01FH,01BH,018H
05EA 3C1F0F07                
05EE FFFFFF03                
05F2 171F1B18                
05F6 09090D0C        438     DB  009H,009H,00DH,00CH,00CH,0FFH,0FFH,0FFH,007H,007H,003H,002H,000H,000H,003H,007H
05FA 0CFFFFFF                
05FE 07070302                
0602 00000307                
0606 070303FF        439     DB  007H,003H,003H,0FFH,0FFH,0FFH,000H,000H,000H,000H,000H,007H,09FH,0FEH,0F8H,0F0H
060A FFFF0000                
060E 00000007                
0612 9FFEF8F0                
0616 FCBF9F07        440     DB  0FCH,0BFH,09FH,007H,001H,000H,000H,000H,000H,000H,000H,000H,000H,000H,000H,000H
061A 01000000                
061E 00000000                
0622 00000000                
0626 00000000        441     DB  000H,000H,000H,000H,060H,060H,060H,060H,060H,060H,060H,060H,060H,060H,060H,060H
062A 60606060                
062E 60606060                
0632 60606060                
0636 6F6F6762        442     DB  06FH,06FH,067H,062H,062H,062H,062H,062H,062H,062H,062H,06FH,06FH,06FH,067H,060H
063A 62626262                
063E 6262626F                
0642 6F6F6760                
0646 60606060        443     DB  060H,060H,060H,060H,060H,060H,060H,060H,060H,060H,060H,060H,060H,060H,060H,060H
064A 60606060                
064E 60606060                
0652 60606060                
0656 606F6F6F        444     DB  060H,06FH,06FH,06FH,060H,060H,060H,060H,060H,060H,060H,060H,060H,060H,060H,060H
065A 60606060                
065E 60606060                
0662 60606060                
0666 60606060        445     DB  060H,060H,060H,060H,060H,060H,060H,060H,06FH,06FH,067H,060H,060H,060H,060H,060H
066A 60606060                
066E 6F6F6760                
0672 60606060                
0676 60606060        446     DB  060H,060H,060H,060H,060H,06FH,06FH,06FH,060H,060H,060H,060H,060H,060H,060H,063H
067A 606F6F6F                
067E 60606060                
0682 60606063                
0686 63676E6F        447     DB  063H,067H,06EH,06FH,067H,06FH,06CH,06CH,06CH,066H,067H,063H,063H,061H,061H,061H
068A 676F6C6C                
068E 6C666763                
0692 63616161                
0696 63636767        448     DB  063H,063H,067H,067H,06FH,06EH,066H,066H,060H,060H,060H,060H,060H,060H,000H,000H
069A 6F6E6666                
069E 60606060                
06A2 60600000                
                     449     
                     450     
                     451     
06A6                 452     PAGER_2:
06A6 FFFFFFFF        453     DB  0FFH,0FFH,0FFH,0FFH,0FFH,0FFH,08FH,00FH,01FH,07FH,03DH,001H,007H,07FH,0FFH,0FFH
06AA FFFF8F0F                
06AE 1F7F3D01                
06B2 077FFFFF                
06B6 FFFFFFFF        454     DB  0FFH,0FFH,0FFH,0FFH,0FFH,0FFH,0FFH,0FFH,0FFH,0FFH,0FFH,0FFH,0FFH,0FFH,0FFH,0FFH
06BA FFFFFFFF                
06BE FFFFFFFF                
06C2 FFFFFFFF                
A51 MACRO ASSEMBLER  12864                                                                07/29/2009 20:03:06 PAGE    11

06C6 3F7FFFFF        455     DB  03FH,07FH,0FFH,0FFH,0FFH,0FFH,0FFH,0FFH,0FFH,0FFH,0FFH,0FFH,0FFH,0FFH,0FFH,0FFH
06CA FFFFFFFF                
06CE FFFFFFFF                
06D2 FFFFFFFF                
06D6 FFFFFFFF        456     DB  0FFH,0FFH,0FFH,0FFH,0FFH,0FFH,0FFH,0FFH,0FFH,0FFH,0FFH,0FFH,0FFH,09FH,03FH,07FH
06DA FFFFFFFF                
06DE FFFFFFFF                
06E2 FF9F3F7F                
06E6 FFFFFFFF        457     DB  0FFH,0FFH,0FFH,0FFH,0FFH,0FFH,0FFH,0FFH,0FFH,0FFH,0FFH,0FFH,0FFH,0FFH,0FFH,0FFH
06EA FFFFFFFF                
06EE FFFFFFFF                
06F2 FFFFFFFF                
06F6 FFFFFFFF        458     DB  0FFH,0FFH,0FFH,0FFH,0FFH,0FFH,07FH,07FH,0FFH,0FFH,0FFH,0FFH,0FFH,00FH,03FH,0FFH
06FA FFFF7F7F                
06FE FFFFFFFF                
0702 FF0F3FFF                
0706 FFFFFFFF        459     DB  0FFH,0FFH,0FFH,0FFH,0FFH,0FFH,0FFH,0FFH,0FFH,0FFH,0FFH,0FFH,0FFH,0FFH,0FFH,0FFH
070A FFFFFFFF                
070E FFFFFFFF                
0712 FFFFFFFF                
0716 FFFFFFFF        460     DB  0FFH,0FFH,0FFH,0FFH,0FFH,0FFH,07FH,07FH,03FH,03FH,01FH,01FH,01FH,03FH,07FH,0FFH
071A FFFF7F7F                
071E 3F3F1F1F                
0722 1F3F7FFF                
0726 FFFFFFC3        461     DB  0FFH,0FFH,0FFH,0C3H,083H,063H,021H,000H,080H,004H,000H,02CH,03EH,0FFH,0FFH,0FFH
072A 83632100                
072E 8004002C                
0732 3EFFFFFF                
0736 07070F7F        462     DB  007H,007H,00FH,07FH,0FFH,0FFH,0FFH,0FFH,0FFH,0FFH,0FFH,0FFH,0FFH,0FFH,0FFH,0FFH
073A FFFFFFFF                
073E FFFFFFFF                
0742 FFFFFFFF                
0746 EEE0E0F1        463     DB  0EEH,0E0H,0E0H,0F1H,07FH,01FH,00FH,007H,0C3H,000H,001H,0C3H,0FFH,0FFH,0FFH,0FFH
074A 7F1F0F07                
074E C30001C3                
0752 FFFFFFFF                
0756 FFFFFFFF        464     DB  0FFH,0FFH,0FFH,0FFH,0FFH,0FFH,0FFH,0FFH,0FFH,0FFH,0FFH,07FH,03FH,003H,000H,000H
075A FFFFFFFF                
075E FFFFFF7F                
0762 3F030000                
0766 8F3F7FBF        465     DB  08FH,03FH,07FH,0BFH,08FH,003H,003H,087H,0FFH,0FFH,0FFH,0FFH,0FFH,0FFH,0FFH,0FFH
076A 8F030387                
076E FFFFFFFF                
0772 FFFFFFFF                
0776 FFFFFFFF        466     DB  0FFH,0FFH,0FFH,0FFH,0FFH,0FFH,0FEH,000H,000H,00FH,00FH,03FH,01FH,01FH,000H,000H
077A FFFFFE00                
077E 000F0F3F                
0782 1F1F0000                
0786 078FF9F1        467     DB  007H,08FH,0F9H,0F1H,0E3H,0FFH,0FFH,0FFH,0FFH,0FFH,0FFH,0FFH,0FFH,0FFH,0FFH,0FFH
078A E3FFFFFF                
078E FFFFFFFF                
0792 FFFFFFFF                
0796 FFFEFC00        468     DB  0FFH,0FEH,0FCH,000H,000H,080H,0E0H,0F0H,0F0H,0F8H,0F8H,0FCH,0FCH,0FCH,0FCH,0FFH
079A 0080E0F0                
079E F0F8F8FC                
07A2 FCFCFCFF                
07A6 FFFFFFFF        469     DB  0FFH,0FFH,0FFH,0FFH,081H,000H,00BH,085H,045H,000H,006H,061H,014H,0C7H,0E3H,0E3H
07AA 81000B85                
07AE 45000661                
07B2 14C7E3E3                
07B6 0000F8F8        470     DB  000H,000H,0F8H,0F8H,000H,001H,0FFH,0FFH,0FFH,0FFH,0FFH,0FFH,0FFH,001H,003H,08FH
07BA 0001FFFF                
07BE FFFFFFFF                
07C2 FF01038F                
07C6 FF1FC3CC        471     DB  0FFH,01FH,0C3H,0CCH,0CFH,08FH,00FH,01FH,001H,000H,07CH,0FFH,0FFH,0FFH,0FFH,0FFH
07CA CF8F0F1F                
A51 MACRO ASSEMBLER  12864                                                                07/29/2009 20:03:06 PAGE    12

07CE 01007CFF                
07D2 FFFFFFFF                
07D6 FFFFFFFF        472     DB  0FFH,0FFH,0FFH,0FFH,0FFH,0FFH,0FFH,0F1H,0E1H,0C1H,0E0H,070H,018H,000H,000H,0CFH
07DA FFFFFFF1                
07DE E1C1E070                
07E2 180000CF                
07E6 F300F0FF        473     DB  0F3H,000H,0F0H,0FFH,003H,000H,0F0H,0FFH,0DFH,03FH,0FFH,0FFH,0FFH,0FFH,0FFH,0FFH
07EA 0300F0FF                
07EE DF3FFFFF                
07F2 FFFFFFFF                
07F6 FFFBE787        474     DB  0FFH,0FBH,0E7H,087H,003H,081H,0C0H,000H,03EH,0CEH,00FH,007H,01CH,000H,003H,08FH
07FA 0381C000                
07FE 3ECE0F07                
0802 1C00038F                
0806 C01F0FC3        475     DB  0C0H,01FH,00FH,0C3H,0FFH,0FFH,0FFH,0FFH,0FFH,0FFH,0FFH,0FFH,0FFH,0FFH,0FFH,0FFH
080A FFFFFFFF                
080E FFFFFFFF                
0812 FFFFFFFF                
0816 FF1F01C0        476     DB  0FFH,01FH,001H,0C0H,0FCH,0FFH,0FFH,0FFH,0FFH,0FFH,0FFH,0FFH,0FFH,0FFH,0FFH,0FFH
081A FCFFFFFF                
081E FFFFFFFF                
0822 FFFFFFFF                
0826 FFFFFFFF        477     DB  0FFH,0FFH,0FFH,0FFH,0FFH,0F3H,089H,008H,000H,000H,000H,024H,03FH,07FH,01FH,0C0H
082A FFF38908                
082E 00000024                
0832 3F7F1FC0                
0836 107F7F07        478     DB  010H,07FH,07FH,007H,000H,0FFH,0FFH,0FFH,0FFH,0FFH,0FFH,0FFH,0FFH,0C0H,000H,03FH
083A 00FFFFFF                
083E FFFFFFFF                
0842 FFC0003F                
0846 01F2E7C7        479     DB  001H,0F2H,0E7H,0C7H,0C7H,0C3H,0E1H,0F0H,0FCH,0F8H,0F0H,0E0H,0C1H,001H,003H,01FH
084A C7C3E1F0                
084E FCF8F0E0                
0852 C101031F                
0856 FFFFFFFF        480     DB  0FFH,0FFH,0FFH,0FFH,0FFH,0FFH,0FFH,0FFH,0FFH,0E1H,0C0H,0F0H,000H,000H,0FFH,03FH
085A FFFFFFFF                
085E FFE1C0F0                
0862 0000FF3F                
0866 07E0FFFF        481     DB  007H,0E0H,0FFH,0FFH,0E0H,080H,08FH,01FH,01FH,01EH,001H,087H,09FH,0FFH,0FFH,0FFH
086A E0808F1F                
086E 1F1E0187                
0872 9FFFFFFF                
0876 FFFFFFFF        482     DB  0FFH,0FFH,0FFH,0FFH,0CFH,003H,080H,000H,0FEH,0FCH,000H,080H,0FEH,080H,0F8H,0CFH
087A CF038000                
087E FEFC0080                
0882 FE80F8CF                
0886 E3F0863F        483     DB  0E3H,0F0H,086H,03FH,0FFH,0FFH,03FH,0FFH,0FFH,0FFH,0FFH,0FFH,0FFH,0FFH,0FFH,01FH
088A FFFF3FFF                
088E FFFFFFFF                
0892 FFFFFF1F                
0896 0300F8FF        484     DB  003H,000H,0F8H,0FFH,0FFH,0FFH,0FFH,0FFH,0FFH,0FFH,0FFH,0FFH,0FFH,0FFH,0FFH,0FFH
089A FFFFFFFF                
089E FFFFFFFF                
08A2 FFFFFFFF                
08A6 7F7F7F7F        485     DB  07FH,07FH,07FH,07FH,073H,071H,078H,07CH,07EH,07EH,07EH,05EH,067H,078H,07EH,07FH
08AA 7371787C                
08AE 7E7E7E5E                
08B2 67787E7F                
08B6 7E70707C        486     DB  07EH,070H,070H,07CH,07FH,07FH,07FH,07FH,07FH,07FH,07FH,07FH,07FH,07FH,07CH,070H
08BA 7F7F7F7F                
08BE 7F7F7F7F                
08C2 7F7F7C70                
08C6 787F7F7F        487     DB  078H,07FH,07FH,07FH,07FH,07FH,07FH,07FH,07FH,07FH,07FH,07FH,07FH,07FH,07FH,07EH
08CA 7F7F7F7F                
08CE 7F7F7F7F                
08D2 7F7F7F7E                
A51 MACRO ASSEMBLER  12864                                                                07/29/2009 20:03:06 PAGE    13

08D6 7F7F7F7F        488     DB  07FH,07FH,07FH,07FH,07FH,07FH,07FH,07FH,07FH,07FH,07FH,07FH,0FEH,0F8H,0FFH,0FFH
08DA 7F7F7F7F                
08DE 7F7F7F7F                
08E2 FEF8FFFF                
08E6 FFFFFFFF        489     DB  0FFH,0FFH,0FFH,0FFH,0FFH,0FFH,0FFH,0FFH,0FFH,0FFH,0FFH,0FFH,0FFH,0FFH,0FFH,0FFH
08EA FFFFFFFF                
08EE FFFFFFFF                
08F2 FFFFFFFF                
08F6 FFFFFFFF        490     DB  0FFH,0FFH,0FFH,0FFH,07FH,07FH,07FH,070H,07FH,07FH,07EH,07FH,07FH,07FH,07FH,0FFH
08FA 7F7F7F70                
08FE 7F7F7E7F                
0902 7F7F7FFF                
0906 FFFFFFFC        491     DB  0FFH,0FFH,0FFH,0FCH,0F1H,0C0H,0C7H,0FFH,0FFH,0FFH,0FFH,0FFH,0E3H,0E1H,0F0H,0F8H
090A F1C0C7FF                
090E FFFFFFFF                
0912 E3E1F0F8                
0916 F8FEFF7F        492     DB  0F8H,0FEH,0FFH,07FH,07FH,07FH,07FH,07FH,07FH,07FH,07FH,07FH,07FH,07FH,07FH,07FH
091A 7F7F7F7F                
091E 7F7F7F7F                
0922 7F7F7F7F                
0926 FFFFFFFF        493     DB  0FFH,0FFH,0FFH,0FFH,0FFH,0FFH,0FFH,0FFH,0FFH,0FFH,0FFH,0F7H,0E7H,0E3H,0C3H,0C3H
092A FFFFFFFF                
092E FFFFFFF7                
0932 E7E3C3C3                
0936 C9C9CDCD        494     DB  0C9H,0C9H,0CDH,0CDH,0CDH,0AEH,0AEH,0AEH,0AEH,0AEH,0AEH,0AEH,0AEH,0AFH,0AFH,0AFH
093A CDAEAEAE                
093E AEAEAEAE                
0942 AEAFAFAF                
0946 AFAFAFAF        495     DB  0AFH,0AFH,0AFH,0AFH,0AFH,0AFH,0AFH,0AFH,0AFH,0AFH,0AFH,08FH,09FH,09FH,09FH,09FH
094A AFAFAFAF                
094E AFAFAF8F                
0952 9F9F9F9F                
0956 DFDF9F9F        496     DB  0DFH,0DFH,09FH,09FH,09FH,09FH,09FH,09FH,09FH,08FH,0AFH,0AEH,0AEH,0A6H,0A0H,0B0H
095A 9F9F9F9F                
095E 9F8FAFAE                
0962 AEA6A0B0                
0966 B0B1B9BB        497     DB  0B0H,0B1H,0B9H,0BBH,0BFH,0BFH,0BFH,0BFH,0BFH,0BFH,0BFH,09FH,09FH,08FH,087H,0C7H
096A BFBFBFBF                
096E BFBFBF9F                
0972 9F8F87C7                
0976 E3E1F1F8        498     DB  0E3H,0E1H,0F1H,0F8H,0F8H,0F8H,0FAH,0FAH,0FBH,0FBH,0FBH,0FBH,0FBH,0FBH,0FBH,0FBH
097A F8F8FAFA                
097E FBFBFBFB                
0982 FBFBFBFB                
0986 FBFBFBFB        499     DB  0FBH,0FBH,0FBH,0FBH,0BBH,0BBH,0BBH,0BBH,0BBH,0BBH,09BH,09BH,08BH,083H,0C3H,0E3H
098A BBBBBBBB                
098E BBBB9B9B                
0992 8B83C3E3                
0996 E1F1F8F8        500     DB  0E1H,0F1H,0F8H,0F8H,0FCH,0FEH,0FEH,0FFH,0FFH,0FFH,0FFH,0FFH,0FFH,0FFH,0FFH,0FFH
099A FCFEFEFF                
099E FFFFFFFF                
09A2 FFFFFFFF                
09A6 FFFFFFFF        501     DB  0FFH,0FFH,0FFH,0FFH,0FFH,0DBH,0C7H,01FH,0CFH,0D3H,0DFH,0FFH,007H,0B7H,057H,0E7H
09AA FFDBC71F                
09AE CFD3DFFF                
09B2 07B757E7                
09B6 FFFF7FBF        502     DB  0FFH,0FFH,07FH,0BFH,0C7H,0DFH,0DFH,0DFH,003H,0DFH,0DFH,0CFH,0DFH,0FFH,0FFH,0FFH
09BA C7DFDFDF                
09BE 03DFDFCF                
09C2 DFFFFFFF                
09C6 FFFFFFFF        503     DB  0FFH,0FFH,0FFH,0FFH,0FFH,0FFH,0FFH,0FFH,0FFH,0FFH,0FFH,0FFH,0FFH,0FFH,0DFH,00FH
09CA FFFFFFFF                
09CE FFFFFFFF                
09D2 FFFFDF0F                
09D6 FFFFFFFF        504     DB  0FFH,0FFH,0FFH,0FFH,0FFH,0DFH,0EFH,06FH,06FH,09FH,0FFH,0FFH,0FFH,00FH,06FH,06FH
09DA FFDFEF6F                
A51 MACRO ASSEMBLER  12864                                                                07/29/2009 20:03:06 PAGE    14

09DE 6F9FFFFF                
09E2 FF0F6F6F                
09E6 6FEFFFFF        505     DB  06FH,0EFH,0FFH,0FFH,01FH,0EFH,0EFH,0EFH,01FH,0FFH,0FFH,0FFH,01FH,0EFH,0EFH,0EFH
09EA 1FEFEFEF                
09EE 1FFFFFFF                
09F2 1FEFEFEF                
09F6 1FFFFF9F        506     DB  01FH,0FFH,0FFH,09FH,06FH,0EFH,06FH,09FH,0FFH,0FFH,0FFH,0FFH,0DFH,00FH,0FFH,0FFH
09FA 6FEF6F9F                
09FE FFFFFFFF                
0A02 DF0FFFFF                
0A06 FFFF3FDF        507     DB  0FFH,0FFH,03FH,0DFH,06FH,06FH,0CFH,0FFH,0FFH,0FFH,07FH,0BFH,0DFH,00FH,0FFH,0FFH
0A0A 6F6FCFFF                
0A0E FFFF7FBF                
0A12 DF0FFFFF                
0A16 FFFF7FBF        508     DB  0FFH,0FFH,07FH,0BFH,0DFH,00FH,0FFH,0FFH,0FFH,00FH,06FH,06FH,06FH,0EFH,0FFH,0FFH
0A1A DF0FFFFF                
0A1E FF0F6F6F                
0A22 6FEFFFFF                
0A26 FFFFFFFF        509     DB  0FFH,0FFH,0FFH,0FFH,0DEH,0EEH,0F6H,0F8H,0FAH,0F6H,0EEH,0FFH,0C0H,0F7H,0F7H,0F8H
0A2A DEEEF6F8                
0A2E FAF6EEFF                
0A32 C0F7F7F8                
0A36 FFFFDFDF        510     DB  0FFH,0FFH,0DFH,0DFH,0DDH,0DDH,0DDH,0DDH,0C0H,0DDH,0DDH,0DDH,0DFH,0DFH,0FFH,0FFH
0A3A DDDDDDDD                
0A3E C0DDDDDD                
0A42 DFDFFFFF                
0A46 FFE4E4FF        511     DB  0FFH,0E4H,0E4H,0FFH,0FFH,0FFH,0FFH,0FFH,0FFH,0FFH,0FFH,0FFH,0FFH,0FFH,0EFH,0E0H
0A4A FFFFFFFF                
0A4E FFFFFFFF                
0A52 FFFFEFE0                
0A56 EFFFFFFF        512     DB  0EFH,0FFH,0FFH,0FFH,0FFH,0F7H,0EFH,0EFH,0EFH,0F0H,0FFH,0FFH,0FFH,0F2H,0EFH,0EFH
0A5A FFF7EFEF                
0A5E EFF0FFFF                
0A62 FFF2EFEF                
0A66 EFF0FFFF        513     DB  0EFH,0F0H,0FFH,0FFH,0F0H,0EFH,0EFH,0EFH,0F0H,0FFH,0FFH,0FFH,0E6H,0EDH,0EDH,0F6H
0A6A F0EFEFEF                
0A6E F0FFFFFF                
0A72 E6EDEDF6                
0A76 F8FFFFF1        514     DB  0F8H,0FFH,0FFH,0F1H,0EEH,0EEH,0EEH,0F1H,0FFH,0FFH,0FFH,0FFH,0EFH,0E0H,0EFH,0FFH
0A7A EEEEEEF1                
0A7E FFFFFFFF                
0A82 EFE0EFFF                
0A86 FFFFF0EE        515     DB  0FFH,0FFH,0F0H,0EEH,0EFH,0EFH,0F0H,0FFH,0FFH,0FDH,0FAH,0FBH,0EBH,0E0H,0EFH,0FFH
0A8A EFEFF0FF                
0A8E FFFDFAFB                
0A92 EBE0EFFF                
0A96 FFFDFAFB        516     DB  0FFH,0FDH,0FAH,0FBH,0EBH,0E0H,0EFH,0FFH,0FFH,0F2H,0EFH,0EFH,0EFH,0F0H,0FFH,0FFH
0A9A EBE0EFFF                
0A9E FFF2EFEF                
0AA2 EFF0FFFF                
                     517     
0AA6                 518     PAGER_3:
0AA6 00000000        519             DB  00H,00H,00H,00H,00H,00H,00H,00H,22H,1AH,0AH,5AH,2AH,0AH,0AH,0FEH
0AAA 00000000                
0AAE 221A0A5A                
0AB2 2A0A0AFE                
0AB6 0A0A2A5A        520             DB  0AH,0AH,2AH,5AH,0AH,2AH,1AH,00H,00H,0FCH,24H,24H,0FEH,04H,88H,0D4H
0ABA 0A2A1A00                
0ABE 00FC2424                
0AC2 FE0488D4                
0AC6 A28894A2        521             DB  0A2H,88H,94H,0A2H,88H,94H,0A2H,00H,00H,00H,00H,00H,00H,00H,00H,80H
0ACA 8894A200                
0ACE 00000000                
0AD2 00000080                
0AD6 80000000        522             DB  80H,00H,00H,00H,00H,00H,00H,00H,00H,0EH,0EAH,0AAH,0AAH,0AEH,0A0H,0E0H
0ADA 00000000                
A51 MACRO ASSEMBLER  12864                                                                07/29/2009 20:03:06 PAGE    15

0ADE 000EEAAA                
0AE2 AAAEA0E0                
0AE6 A0AEAAAA        523             DB  0A0H,0AEH,0AAH,0AAH,0EAH,0EH,00H,00H,10H,10H,0D0H,0FEH,90H,10H,00H,0FCH
0AEA EA0E0000                
0AEE 1010D0FE                
0AF2 901000FC                
0AF6 A4242424        524             DB  0A4H,24H,24H,24H,24H,0E6H,04H,00H,22H,1AH,0AH,5AH,2AH,0AH,0AH,0FEH
0AFA 24E60400                
0AFE 221A0A5A                
0B02 2A0A0AFE                
0B06 0A0A2A5A        525             DB  0AH,0AH,2AH,5AH,0AH,2AH,1AH,00H,00H,0FCH,24H,24H,0FEH,04H,88H,0D4H
0B0A 0A2A1A00                
0B0E 00FC2424                
0B12 FE0488D4                
0B16 A28894A2        526             DB  0A2H,88H,94H,0A2H,88H,94H,0A2H,00H,00H,00H,00H,00H,00H,00H,00H,00H
0B1A 8894A200                
0B1E 00000000                
0B22 00000000                
0B26 00000000        527             DB  00H,00H,00H,00H,00H,00H,00H,00H,00H,00H,1FH,15H,15H,15H,15H,3FH
0B2A 00000000                
0B2E 00001F15                
0B32 1515153F                
0B36 55555555        528             DB  55H,55H,55H,55H,5FH,40H,00H,00H,20H,1FH,41H,41H,3FH,00H,7FH,20H
0B3A 5F400000                
0B3E 201F4141                
0B42 3F007F20                
0B46 312A242A        529             DB  31H,2AH,24H,2AH,31H,20H,7FH,00H,00H,00H,00H,00H,00H,20H,13H,0FH
0B4A 31207F00                
0B4E 00000000                
0B52 0020130F                
0B56 07030000        530             DB  07H,03H,00H,00H,00H,00H,00H,00H,08H,08H,0BH,0AH,0AH,0AH,0AH,7FH
0B5A 00000000                
0B5E 08080B0A                
0B62 0A0A0A7F                
0B66 0A0A0A0A        531             DB  0AH,0AH,0AH,0AH,0BH,08H,08H,00H,04H,03H,00H,7FH,20H,11H,48H,47H
0B6A 0B080800                
0B6E 0403007F                
0B72 20114847                
0B76 20170814        532             DB  20H,17H,08H,14H,23H,60H,20H,00H,00H,00H,1FH,15H,15H,15H,15H,3FH
0B7A 23602000                
0B7E 00001F15                
0B82 1515153F                
0B86 55555555        533             DB  55H,55H,55H,55H,5FH,40H,00H,00H,20H,1FH,41H,41H,3FH,00H,7FH,20H
0B8A 5F400000                
0B8E 201F4141                
0B92 3F007F20                
0B96 312A242A        534             DB  31H,2AH,24H,2AH,31H,20H,7FH,00H,00H,00H,00H,00H,00H,00H,00H,00H
0B9A 31207F00                
0B9E 00000000                
0BA2 00000000                
0BA6 00000000        535             DB  00H,00H,00H,00H,00H,00H,00H,00H,00H,00H,00H,00H,00H,00H,00H,00H
0BAA 00000000                
0BAE 00000000                
0BB2 00000000                
0BB6 0040C0C0        536             DB  00H,40H,0C0H,0C0H,40H,40H,0C0H,0C0H,00H,40H,0C0H,0C0H,40H,40H,0C0H,80H
0BBA 4040C0C0                
0BBE 0040C0C0                
0BC2 4040C080                
0BC6 0040C0C0        537             DB  00H,40H,0C0H,0C0H,40H,40H,0C0H,80H,00H,00H,80H,0C0H,40H,0C0H,80H,00H
0BCA 4040C080                
0BCE 000080C0                
0BD2 40C08000                
0BD6 00C0C080        538             DB  00H,0C0H,0C0H,80H,00H,80H,0C0H,0C0H,00H,00H,00H,00H,00H,00H,00H,00H
0BDA 0080C0C0                
0BDE 00000000                
0BE2 00000000                
A51 MACRO ASSEMBLER  12864                                                                07/29/2009 20:03:06 PAGE    16

0BE6 2020A0F8        539             DB  20H,20H,0A0H,0F8H,20H,00H,10H,0D0H,78H,50H,50H,50H,78H,0D0H,10H,00H
0BEA 200010D0                
0BEE 78505050                
0BF2 78D01000                
0BF6 4040F840        540             DB  40H,40H,0F8H,40H,40H,80H,78H,50H,50H,50H,80H,88H,98H,0A8H,0D8H,00H
0BFA 40807850                
0BFE 50508088                
0C02 98A8D800                
0C06 00007848        541             DB  00H,00H,78H,48H,48H,48H,78H,80H,78H,48H,0C8H,48H,78H,00H,00H,00H
0C0A 48487880                
0C0E 7848C848                
0C12 78000000                
0C16 00000000        542             DB  00H,00H,00H,00H,00H,00H,00H,00H,00H,00H,00H,00H,00H,00H,00H,00H
0C1A 00000000                
0C1E 00000000                
0C22 00000000                
0C26 00000000        543             DB  00H,00H,00H,00H,00H,00H,00H,00H,00H,00H,00H,00H,00H,00H,00H,00H
0C2A 00000000                
0C2E 00000000                
0C32 00000000                
0C36 00407F7F        544             DB  00H,40H,7FH,7FH,44H,4EH,60H,71H,00H,40H,7FH,7FH,44H,04H,07H,03H
0C3A 444E6071                
0C3E 00407F7F                
0C42 44040703                
0C46 00407F7F        545             DB  00H,40H,7FH,7FH,04H,0CH,7FH,73H,00H,1FH,3FH,60H,40H,60H,3FH,1FH
0C4A 040C7F73                
0C4E 001F3F60                
0C52 40603F1F                
0C56 007F7F01        546             DB  00H,7FH,7FH,01H,03H,01H,7FH,7FH,00H,00H,00H,00H,00H,00H,00H,00H
0C5A 03017F7F                
0C5E 00000000                
0C62 00000000                
0C66 080601FF        547             DB  08H,06H,01H,0FFH,11H,02H,10H,97H,55H,3DH,15H,35H,55H,97H,90H,00H
0C6A 11021097                
0C6E 553D1535                
0C72 55979000                
0C76 9008FF04        548             DB  90H,08H,0FFH,04H,02H,89H,49H,3FH,49H,89H,70H,20H,7FH,88H,09H,00H
0C7A 0289493F                
0C7E 49897020                
0C82 7F880900                
0C86 2222F232        549             DB  22H,22H,0F2H,32H,2AH,2AH,0E6H,03H,0E6H,2AH,2AH,33H,0F2H,22H,22H,00H
0C8A 2A2AE603                
0C8E E62A2A33                
0C92 F2222200                
0C96 00000000        550             DB  00H,00H,00H,00H,00H,00H,00H,00H,00H,00H,00H,00H,00H,00H,00H,00H
0C9A 00000000                
0C9E 00000000                
0CA2 00000000                
0CA6 00000000        551             DB  00H,00H,00H,00H,00H,00H,00H,00H,00H,40H,40H,40H,0C0H,40H,40H,40H
0CAA 00000000                
0CAE 00404040                
0CB2 C0404040                
0CB6 4040E040        552             DB  40H,40H,0E0H,40H,00H,00H,00H,00H,00H,00H,00H,00H,80H,40H,60H,40H
0CBA 00000000                
0CBE 00000000                
0CC2 80406040                
0CC6 4040C040        553             DB  40H,40H,0C0H,40H,00H,00H,00H,00H,80H,80H,80H,0C0H,60H,40H,00H,40H
0CCA 00000000                
0CCE 808080C0                
0CD2 60400040                
0CD6 4040C040        554             DB  40H,40H,0C0H,40H,20H,00H,00H,00H,20H,0A0H,0A0H,0A0H,0A0H,0A0H,0A0H,0E0H
0CDA 20000000                
0CDE 20A0A0A0                
0CE2 A0A0A0E0                
0CE6 A0A0A0A1        555             DB  0A0H,0A0H,0A0H,0A1H,0A0H,0A1H,0A1H,00H,00H,00H,40H,40H,40H,40H,41H,40H
0CEA A0A1A100                
A51 MACRO ASSEMBLER  12864                                                                07/29/2009 20:03:06 PAGE    17

0CEE 00004040                
0CF2 40404140                
0CF6 4041C060        556             DB  40H,41H,0C0H,60H,41H,00H,00H,00H,00H,40H,41H,40H,0C0H,40H,41H,60H
0CFA 41000000                
0CFE 00404140                
0D02 C0404160                
0D06 4040C141        557             DB  40H,40H,0C1H,41H,41H,41H,01H,00H,01H,01H,01H,01H,0E1H,20H,20H,20H
0D0A 41410100                
0D0E 01010101                
0D12 E1202020                
0D16 2020E000        558             DB  20H,20H,0E0H,00H,00H,00H,00H,00H,00H,00H,00H,00H,00H,00H,00H,00H
0D1A 00000000                
0D1E 00000000                
0D22 00000000                
0D26 00000000        559             DB  00H,00H,00H,00H,00H,00H,00H,00H,00H,00H,0C0H,38H,07H,0CH,14H,24H
0D2A 00000000                
0D2E 0000C038                
0D32 070C1424                
0D36 C4874434        560             DB  0C4H,87H,44H,34H,0CH,00H,00H,00H,00H,10H,92H,91H,49H,4AH,0A4H,12H
0D3A 0C000000                
0D3E 00109291                
0D42 494AA412                
0D46 1E119050        561             DB  1EH,11H,90H,50H,38H,10H,00H,00H,42H,22H,1AH,0FFH,12H,22H,01H,7DH
0D4A 38100000                
0D4E 42221AFF                
0D52 1222017D                
0D56 5555FF55        562             DB  55H,55H,0FFH,55H,55H,7DH,01H,00H,02H,01H,0F0H,55H,52H,50H,50H,0FFH
0D5A 557D0100                
0D5E 0201F055                
0D62 525050FF                
0D66 50505255        563             DB  50H,50H,52H,55H,0F0H,02H,01H,00H,08H,08H,08H,08H,08H,08H,08H,0FEH
0D6A F0020100                
0D6E 08080808                
0D72 080808FE                
0D76 0A090808        564             DB  0AH,09H,08H,08H,08H,0CH,08H,00H,00H,0FEH,42H,22H,9EH,93H,92H,92H
0D7A 080C0800                
0D7E 00FE4222                
0D82 9E939292                
0D86 FE9392D2        565             DB  0FEH,93H,92H,0D2H,92H,03H,02H,00H,00H,0F0H,10H,10H,17H,12H,0F2H,02H
0D8A 92030200                
0D8E 00F01010                
0D92 1712F202                
0D96 F2121710        566             DB  0F2H,12H,17H,10H,10H,0F0H,00H,00H,00H,00H,00H,00H,00H,00H,00H,00H
0D9A 10F00000                
0D9E 00000000                
0DA2 00000000                
0DA6 00000000        567             DB  00H,00H,00H,00H,00H,00H,00H,00H,02H,01H,00H,04H,04H,02H,02H,01H
0DAA 00000000                
0DAE 02010004                
0DB2 04020201                
0DB6 00000101        568             DB  00H,00H,01H,01H,02H,06H,02H,00H,00H,04H,04H,04H,02H,02H,02H,01H
0DBA 02060200                
0DBE 00040404                
0DC2 02020201                
0DC6 01010000        569             DB  01H,01H,00H,00H,00H,00H,00H,00H,00H,00H,00H,07H,00H,00H,04H,05H
0DCA 00000000                
0DCE 00000007                
0DD2 00000405                
0DD6 05050705        570             DB  05H,05H,07H,05H,05H,05H,04H,00H,00H,00H,01H,01H,01H,01H,01H,03H
0DDA 05050400                
0DDE 00000101                
0DE2 01010103                
0DE6 05050505        571             DB  05H,05H,05H,05H,05H,04H,00H,00H,00H,00H,00H,00H,00H,02H,04H,03H
0DEA 05040000                
0DEE 00000000                
0DF2 00020403                
A51 MACRO ASSEMBLER  12864                                                                07/29/2009 20:03:06 PAGE    18

0DF6 00000000        572             DB  00H,00H,00H,00H,00H,00H,00H,00H,02H,01H,04H,04H,04H,04H,04H,04H
0DFA 00000000                
0DFE 02010404                
0E02 04040404                
0E06 07040404        573             DB  07H,04H,04H,04H,04H,06H,04H,00H,00H,07H,02H,02H,02H,02H,07H,00H
0E0A 04060400                
0E0E 00070202                
0E12 02020700                
0E16 07020202        574             DB  07H,02H,02H,02H,02H,07H,00H,00H,00H,00H,00H,00H,00H,00H,00H,00H
0E1A 02070000                
0E1E 00000000                
0E22 00000000                
0E26 00000000        575             DB  00H,00H,00H,00H,00H,00H,00H,00H,00H,00H,00H,00H,00H,00H,00H,00H
0E2A 00000000                
0E2E 00000000                
0E32 00000000                
0E36 00000000        576             DB  00H,00H,00H,00H,00H,00H,00H,00H,00H,00H,00H,00H,00H,00H,00H,00H
0E3A 00000000                
0E3E 00000000                
0E42 00000000                
0E46 00000000        577             DB  00H,00H,00H,00H,00H,00H,00H,00H,00H,00H,00H,00H,00H,00H,00H,00H
0E4A 00000000                
0E4E 00000000                
0E52 00000000                
0E56 00000000        578             DB  00H,00H,00H,00H,00H,00H,00H,00H,00H,00H,00H,00H,00H,00H,00H,00H
0E5A 00000000                
0E5E 00000000                
0E62 00000000                
0E66 00000000        579             DB  00H,00H,00H,00H,00H,00H,00H,00H,00H,00H,00H,00H,00H,00H,00H,00H
0E6A 00000000                
0E6E 00000000                
0E72 00000000                
0E76 00000000        580             DB  00H,00H,00H,00H,00H,00H,00H,00H,00H,00H,00H,00H,00H,00H,00H,00H
0E7A 00000000                
0E7E 00000000                
0E82 00000000                
0E86 00000000        581             DB  00H,00H,00H,00H,00H,00H,00H,00H,00H,00H,00H,00H,00H,00H,00H,00H
0E8A 00000000                
0E8E 00000000                
0E92 00000000                
0E96 00000000        582             DB  00H,00H,00H,00H,00H,00H,00H,00H,00H,00H,00H,00H,00H,00H,00H,00H
0E9A 00000000                
0E9E 00000000                
0EA2 00000000                
                     583             
                     584     
                     585                     END
                             
                             
                             
A51 MACRO ASSEMBLER  12864                                                                07/29/2009 20:03:06 PAGE    19

SYMBOL TABLE LISTING
------ ----- -------


N A M E             T Y P E  V A L U E   ATTRIBUTES

AY_CO. . . . . . .  N NUMB   0036H   A   
CS1. . . . . . . .  B ADDR   00B0H.2 A   
CS2. . . . . . . .  B ADDR   00B0H.3 A   
DELAY. . . . . . .  C ADDR   028CH   A   
DELAY1 . . . . . .  C ADDR   028EH   A   
DELAY2 . . . . . .  C ADDR   0290H   A   
DELAYA . . . . . .  C ADDR   0296H   A   
DELAYA1. . . . . .  C ADDR   0298H   A   
DELAYB . . . . . .  C ADDR   029DH   A   
DELAYB1. . . . . .  C ADDR   029FH   A   
DELAYB2. . . . . .  C ADDR   02A1H   A   
DI . . . . . . . .  B ADDR   00A0H.6 A   
E. . . . . . . . .  B ADDR   00A0H.7 A   
HELLO. . . . . . .  C ADDR   0030H   A   
ICON_S . . . . . .  C ADDR   00D1H   A   
ICON_S1. . . . . .  C ADDR   00D3H   A   
ICON_S12 . . . . .  C ADDR   00E8H   A   
LCD_DATA . . . . .  D ADDR   0080H   A   
P0 . . . . . . . .  D ADDR   0080H   A   
P1 . . . . . . . .  D ADDR   0090H   A   
P2 . . . . . . . .  D ADDR   00A0H   A   
P3 . . . . . . . .  D ADDR   00B0H   A   
PAGE1. . . . . . .  C ADDR   00F7H   A   
PAGE2. . . . . . .  C ADDR   0159H   A   
PAGE3. . . . . . .  C ADDR   01B0H   A   
PAGER. . . . . . .  C ADDR   0224H   A   
PAGER_1. . . . . .  C ADDR   02A6H   A   
PAGER_2. . . . . .  C ADDR   06A6H   A   
PAGER_3. . . . . .  C ADDR   0AA6H   A   
PAGES. . . . . . .  C ADDR   0207H   A   
PAGE_2_UP. . . . .  C ADDR   0176H   A   
PAGE_3_UP. . . . .  C ADDR   01CDH   A   
PAGE_END . . . . .  C ADDR   0239H   A   
PAGE_LOOP. . . . .  C ADDR   0212H   A   
PAGE_ST. . . . . .  C ADDR   0226H   A   
PAGE_UP. . . . . .  C ADDR   0114H   A   
PAUSE. . . . . . .  C ADDR   028AH   A   
REG0 . . . . . . .  N NUMB   0037H   A   
REG1 . . . . . . .  N NUMB   0038H   A   
REG2 . . . . . . .  N NUMB   0039H   A   
REG3 . . . . . . .  N NUMB   003AH   A   
REG4 . . . . . . .  N NUMB   003BH   A   
REG5 . . . . . . .  N NUMB   003CH   A   
REG6 . . . . . . .  N NUMB   003DH   A   
REG7 . . . . . . .  N NUMB   003EH   A   
REG_T. . . . . . .  N NUMB   003FH   A   
RESET. . . . . . .  C ADDR   0281H   A   
RST. . . . . . . .  B ADDR   00B0H.7 A   
RW . . . . . . . .  B ADDR   00A0H.5 A   
SP . . . . . . . .  D ADDR   0081H   A   
START. . . . . . .  C ADDR   003BH   A   
VAR. . . . . . . .  N NUMB   0030H   A   
VAR1 . . . . . . .  N NUMB   0031H   A   
VAR2 . . . . . . .  N NUMB   0032H   A   
VAR3 . . . . . . .  N NUMB   0033H   A   
VAR4 . . . . . . .  N NUMB   0034H   A   
WC . . . . . . . .  C ADDR   0248H   A   
WD1. . . . . . . .  C ADDR   025BH   A   
WD2. . . . . . . .  C ADDR   026EH   A   
X_CO . . . . . . .  N NUMB   0035H   A   
A51 MACRO ASSEMBLER  12864                                                                07/29/2009 20:03:06 PAGE    20

Y_AXIS . . . . . .  C ADDR   006BH   A   


REGISTER BANK(S) USED: 0 


ASSEMBLY COMPLETE.  0 WARNING(S), 0 ERROR(S)
